target datalayout = "e-m:e-p270:32:32-p271:32:32-p272:64:64-i64:64-i128:128-f80:128-n8:16:32:64-S128"
target triple = "x86_64-pc-linux-gnu"

%struct.H5CX_node_t = type { %struct.H5CX_t, ptr }
%struct.H5CX_t = type { i64, ptr, i64, ptr, i64, ptr, i64, ptr, i64, ptr, i64, ptr, i64, i32, i64, i8, ptr, i8, ptr, i8, i32, i8, [3 x double], i8, i64, i8, i32, i8, %struct.H5Z_cb_t, i8, ptr, i8, %struct.H5T_vlen_alloc_info_t, i8, %struct.H5T_conv_cb_t, i8, i32, i8, i8, i8, i32, i8, i8, i32, i8, i8, i32, i8, i32, i8, i64, i8, i8, i8, i8, i8, ptr, i8, ptr, i8, i32, i8, i32, i8, %struct.H5VL_connector_prop_t, i8, ptr, i8 }
%struct.H5Z_cb_t = type { ptr, ptr }
%struct.H5T_vlen_alloc_info_t = type { ptr, ptr, ptr, ptr }
%struct.H5T_conv_cb_t = type { ptr, ptr }
%struct.H5VL_connector_prop_t = type { ptr, ptr }

@H5_libinit_g = external global i8, align 1
@H5_libterm_g = external global i8, align 1
@.str = private unnamed_addr constant [97 x i8] c"generated/home/dtcxzyw/WorkSpace/Projects/compilers/llvm-opt-benchmark/bench/hdf5/hdf5/src/H5L.c\00", align 1
@H5E_FUNC_g = external global i64, align 8
@H5E_CANTINIT_g = external global i64, align 8
@.str.1 = private unnamed_addr constant [30 x i8] c"library initialization failed\00", align 1
@H5L_init_g = external global i8, align 1
@.str.2 = private unnamed_addr constant [32 x i8] c"interface initialization failed\00", align 1
@H5E_CANTSET_g = external global i64, align 8
@.str.3 = private unnamed_addr constant [22 x i8] c"can't set API context\00", align 1
@H5E_LINK_g = external global i64, align 8
@.str.19 = private unnamed_addr constant [9 x i8] c"app_file\00", align 1
@.str.20 = private unnamed_addr constant [9 x i8] c"app_func\00", align 1
@.str.21 = private unnamed_addr constant [9 x i8] c"app_line\00", align 1
@.str.26 = private unnamed_addr constant [8 x i8] c"lapl_id\00", align 1
@.str.27 = private unnamed_addr constant [6 x i8] c"es_id\00", align 1
@H5E_CANTINSERT_g = external global i64, align 8
@.str.28 = private unnamed_addr constant [34 x i8] c"can't insert token into event set\00", align 1
@H5E_CANTDELETE_g = external global i64, align 8
@__func__.H5Ldelete_async = private unnamed_addr constant [16 x i8] c"H5Ldelete_async\00", align 1
@.str.47 = private unnamed_addr constant [37 x i8] c"unable to asynchronously delete link\00", align 1
@.str.48 = private unnamed_addr constant [12 x i8] c"*s*sIui*sii\00", align 1
@.str.49 = private unnamed_addr constant [7 x i8] c"loc_id\00", align 1
@.str.50 = private unnamed_addr constant [5 x i8] c"name\00", align 1

; Function Attrs: nounwind uwtable
define i32 @H5Ldelete_async(ptr noundef %0, ptr noundef %1, i32 noundef %2, i64 noundef %3, ptr noundef %4, i64 noundef %5, i64 noundef %6) #0 {
  %8 = alloca ptr, align 8
  %9 = alloca ptr, align 8
  %10 = alloca i32, align 4
  %11 = alloca i64, align 8
  %12 = alloca ptr, align 8
  %13 = alloca i64, align 8
  %14 = alloca i64, align 8
  %15 = alloca ptr, align 8
  %16 = alloca ptr, align 8
  %17 = alloca ptr, align 8
  %18 = alloca i32, align 4
  %19 = alloca %struct.H5CX_node_t, align 8
  %20 = alloca i8, align 1
  %21 = alloca i8, align 1
  store ptr %0, ptr %8, align 8, !tbaa !7
  store ptr %1, ptr %9, align 8, !tbaa !7
  store i32 %2, ptr %10, align 4, !tbaa !12
  store i64 %3, ptr %11, align 8, !tbaa !3
  store ptr %4, ptr %12, align 8, !tbaa !7
  store i64 %5, ptr %13, align 8, !tbaa !3
  store i64 %6, ptr %14, align 8, !tbaa !3
  call void @llvm.lifetime.start.p0(i64 8, ptr %15) #8
  store ptr null, ptr %15, align 8, !tbaa !10
  call void @llvm.lifetime.start.p0(i64 8, ptr %16) #8
  store ptr null, ptr %16, align 8, !tbaa !22
  call void @llvm.lifetime.start.p0(i64 8, ptr %17) #8
  store ptr null, ptr %17, align 8, !tbaa !22
  call void @llvm.lifetime.start.p0(i64 4, ptr %18) #8
  store i32 0, ptr %18, align 4, !tbaa !12
  call void @llvm.lifetime.start.p0(i64 480, ptr %19) #8
  call void @llvm.memset.p0.i64(ptr align 8 %19, i8 0, i64 480, i1 false)
  call void @llvm.lifetime.start.p0(i64 1, ptr %20) #8
  store i8 0, ptr %20, align 1, !tbaa !14
  call void @llvm.lifetime.start.p0(i64 1, ptr %21) #8
  store i8 0, ptr %21, align 1, !tbaa !14
  br label %22

22:                                               ; preds = %7
  %23 = load i8, ptr @H5_libinit_g, align 1, !tbaa !14, !range !16, !noundef !17
  %24 = trunc i8 %23 to i1
  br i1 %24, label %29, label %25

25:                                               ; preds = %22
  %26 = load i8, ptr @H5_libterm_g, align 1, !tbaa !14, !range !16, !noundef !17
  %27 = trunc i8 %26 to i1
  %28 = xor i1 %27, true
  br label %29

29:                                               ; preds = %25, %22
  %30 = phi i1 [ false, %22 ], [ %28, %25 ]
  %31 = xor i1 %30, true
  %32 = xor i1 %31, true
  %33 = zext i1 %32 to i32
  %34 = sext i32 %33 to i64
  %35 = call i64 @llvm.expect.i64(i64 %34, i64 0)
  %36 = icmp ne i64 %35, 0
  br i1 %36, label %37, label %66

37:                                               ; preds = %29
  %38 = call i32 @H5_init_library()
  %39 = icmp slt i32 %38, 0
  %40 = xor i1 %39, true
  %41 = xor i1 %40, true
  %42 = zext i1 %41 to i32
  %43 = sext i32 %42 to i64
  %44 = call i64 @llvm.expect.i64(i64 %43, i64 0)
  %45 = icmp ne i64 %44, 0
  br i1 %45, label %46, label %65

46:                                               ; preds = %37
  br label %47

47:                                               ; preds = %46
  br label %48

48:                                               ; preds = %47
  br label %49

49:                                               ; preds = %48
  %50 = load i64, ptr @H5E_FUNC_g, align 8, !tbaa !3
  %51 = load i64, ptr @H5E_CANTINIT_g, align 8, !tbaa !3
  %52 = call i32 (ptr, ptr, i32, i64, i64, ptr, ...) @H5E_printf_stack(ptr noundef @.str, ptr noundef @__func__.H5Ldelete_async, i32 noundef 847, i64 noundef %50, i64 noundef %51, ptr noundef @.str.1)
  br label %53

53:                                               ; preds = %49
  br label %54

54:                                               ; preds = %53
  store i8 1, ptr %21, align 1, !tbaa !14
  %55 = load i8, ptr %21, align 1, !tbaa !14, !range !16, !noundef !17
  %56 = trunc i8 %55 to i1
  %57 = zext i1 %56 to i8
  store i8 %57, ptr %21, align 1, !tbaa !14
  br label %58

58:                                               ; preds = %54
  br label %59

59:                                               ; preds = %58
  br label %60

60:                                               ; preds = %59
  store i32 -1, ptr %18, align 4, !tbaa !12
  br label %207

61:                                               ; No predecessors!
  br label %62

62:                                               ; preds = %61
  br label %63

63:                                               ; preds = %62
  br label %64

64:                                               ; preds = %63
  br label %65

65:                                               ; preds = %64, %37
  br label %66

66:                                               ; preds = %65, %29
  %67 = load i8, ptr @H5L_init_g, align 1, !tbaa !14, !range !16, !noundef !17
  %68 = trunc i8 %67 to i1
  br i1 %68, label %73, label %69

69:                                               ; preds = %66
  %70 = load i8, ptr @H5_libterm_g, align 1, !tbaa !14, !range !16, !noundef !17
  %71 = trunc i8 %70 to i1
  %72 = xor i1 %71, true
  br label %73

73:                                               ; preds = %69, %66
  %74 = phi i1 [ false, %66 ], [ %72, %69 ]
  %75 = xor i1 %74, true
  %76 = xor i1 %75, true
  %77 = zext i1 %76 to i32
  %78 = sext i32 %77 to i64
  %79 = call i64 @llvm.expect.i64(i64 %78, i64 0)
  %80 = icmp ne i64 %79, 0
  br i1 %80, label %81, label %104

81:                                               ; preds = %73
  store i8 1, ptr @H5L_init_g, align 1, !tbaa !14
  %82 = call i32 @H5L__init_package()
  %83 = icmp slt i32 %82, 0
  br i1 %83, label %84, label %103

84:                                               ; preds = %81
  store i8 0, ptr @H5L_init_g, align 1, !tbaa !14
  br label %85

85:                                               ; preds = %84
  br label %86

86:                                               ; preds = %85
  br label %87

87:                                               ; preds = %86
  %88 = load i64, ptr @H5E_FUNC_g, align 8, !tbaa !3
  %89 = load i64, ptr @H5E_CANTINIT_g, align 8, !tbaa !3
  %90 = call i32 (ptr, ptr, i32, i64, i64, ptr, ...) @H5E_printf_stack(ptr noundef @.str, ptr noundef @__func__.H5Ldelete_async, i32 noundef 847, i64 noundef %88, i64 noundef %89, ptr noundef @.str.2)
  br label %91

91:                                               ; preds = %87
  br label %92

92:                                               ; preds = %91
  store i8 1, ptr %21, align 1, !tbaa !14
  %93 = load i8, ptr %21, align 1, !tbaa !14, !range !16, !noundef !17
  %94 = trunc i8 %93 to i1
  %95 = zext i1 %94 to i8
  store i8 %95, ptr %21, align 1, !tbaa !14
  br label %96

96:                                               ; preds = %92
  br label %97

97:                                               ; preds = %96
  br label %98

98:                                               ; preds = %97
  store i32 -1, ptr %18, align 4, !tbaa !12
  br label %207

99:                                               ; No predecessors!
  br label %100

100:                                              ; preds = %99
  br label %101

101:                                              ; preds = %100
  br label %102

102:                                              ; preds = %101
  br label %103

103:                                              ; preds = %102, %81
  br label %104

104:                                              ; preds = %103, %73
  br label %105

105:                                              ; preds = %104
  br label %106

106:                                              ; preds = %105
  br label %107

107:                                              ; preds = %106
  %108 = call i32 @H5CX_push(ptr noundef %19)
  %109 = icmp slt i32 %108, 0
  %110 = xor i1 %109, true
  %111 = xor i1 %110, true
  %112 = zext i1 %111 to i32
  %113 = sext i32 %112 to i64
  %114 = call i64 @llvm.expect.i64(i64 %113, i64 0)
  %115 = icmp ne i64 %114, 0
  br i1 %115, label %116, label %135

116:                                              ; preds = %107
  br label %117

117:                                              ; preds = %116
  br label %118

118:                                              ; preds = %117
  br label %119

119:                                              ; preds = %118
  %120 = load i64, ptr @H5E_FUNC_g, align 8, !tbaa !3
  %121 = load i64, ptr @H5E_CANTSET_g, align 8, !tbaa !3
  %122 = call i32 (ptr, ptr, i32, i64, i64, ptr, ...) @H5E_printf_stack(ptr noundef @.str, ptr noundef @__func__.H5Ldelete_async, i32 noundef 847, i64 noundef %120, i64 noundef %121, ptr noundef @.str.3)
  br label %123

123:                                              ; preds = %119
  br label %124

124:                                              ; preds = %123
  store i8 1, ptr %21, align 1, !tbaa !14
  %125 = load i8, ptr %21, align 1, !tbaa !14, !range !16, !noundef !17
  %126 = trunc i8 %125 to i1
  %127 = zext i1 %126 to i8
  store i8 %127, ptr %21, align 1, !tbaa !14
  br label %128

128:                                              ; preds = %124
  br label %129

129:                                              ; preds = %128
  br label %130

130:                                              ; preds = %129
  store i32 -1, ptr %18, align 4, !tbaa !12
  br label %207

131:                                              ; No predecessors!
  br label %132

132:                                              ; preds = %131
  br label %133

133:                                              ; preds = %132
  br label %134

134:                                              ; preds = %133
  br label %136

135:                                              ; preds = %107
  store i8 1, ptr %20, align 1, !tbaa !14
  br label %136

136:                                              ; preds = %135, %134
  br label %137

137:                                              ; preds = %136
  br label %138

138:                                              ; preds = %137
  %139 = call i32 @H5E_clear_stack()
  %140 = load i64, ptr %14, align 8, !tbaa !3
  %141 = icmp ne i64 0, %140
  br i1 %141, label %142, label %143

142:                                              ; preds = %138
  store ptr %16, ptr %17, align 8, !tbaa !22
  br label %143

143:                                              ; preds = %142, %138
  %144 = load i64, ptr %11, align 8, !tbaa !3
  %145 = load ptr, ptr %12, align 8, !tbaa !7
  %146 = load i64, ptr %13, align 8, !tbaa !3
  %147 = load ptr, ptr %17, align 8, !tbaa !22
  %148 = call i32 @H5L__delete_api_common(i64 noundef %144, ptr noundef %145, i64 noundef %146, ptr noundef %147, ptr noundef %15)
  %149 = icmp slt i32 %148, 0
  br i1 %149, label %150, label %169

150:                                              ; preds = %143
  br label %151

151:                                              ; preds = %150
  br label %152

152:                                              ; preds = %151
  br label %153

153:                                              ; preds = %152
  %154 = load i64, ptr @H5E_LINK_g, align 8, !tbaa !3
  %155 = load i64, ptr @H5E_CANTDELETE_g, align 8, !tbaa !3
  %156 = call i32 (ptr, ptr, i32, i64, i64, ptr, ...) @H5E_printf_stack(ptr noundef @.str, ptr noundef @__func__.H5Ldelete_async, i32 noundef 855, i64 noundef %154, i64 noundef %155, ptr noundef @.str.47)
  br label %157

157:                                              ; preds = %153
  br label %158

158:                                              ; preds = %157
  store i8 1, ptr %21, align 1, !tbaa !14
  %159 = load i8, ptr %21, align 1, !tbaa !14, !range !16, !noundef !17
  %160 = trunc i8 %159 to i1
  %161 = zext i1 %160 to i8
  store i8 %161, ptr %21, align 1, !tbaa !14
  br label %162

162:                                              ; preds = %158
  br label %163

163:                                              ; preds = %162
  br label %164

164:                                              ; preds = %163
  store i32 -1, ptr %18, align 4, !tbaa !12
  br label %207

165:                                              ; No predecessors!
  br label %166

166:                                              ; preds = %165
  br label %167

167:                                              ; preds = %166
  br label %168

168:                                              ; preds = %167
  br label %169

169:                                              ; preds = %168, %143
  %170 = load ptr, ptr %16, align 8, !tbaa !22
  %171 = icmp ne ptr null, %170
  br i1 %171, label %172, label %206

172:                                              ; preds = %169
  %173 = load i64, ptr %14, align 8, !tbaa !3
  %174 = load ptr, ptr %15, align 8, !tbaa !10
  %175 = call ptr @H5VL_obj_get_connector(ptr noundef %174)
  %176 = load ptr, ptr %16, align 8, !tbaa !22
  %177 = load ptr, ptr %8, align 8, !tbaa !7
  %178 = load ptr, ptr %9, align 8, !tbaa !7
  %179 = load i32, ptr %10, align 4, !tbaa !12
  %180 = load i64, ptr %11, align 8, !tbaa !3
  %181 = load ptr, ptr %12, align 8, !tbaa !7
  %182 = load i64, ptr %13, align 8, !tbaa !3
  %183 = load i64, ptr %14, align 8, !tbaa !3
  %184 = call i32 (i64, ptr, ptr, ptr, ptr, ...) @H5ES_insert(i64 noundef %173, ptr noundef %175, ptr noundef %176, ptr noundef @__func__.H5Ldelete_async, ptr noundef @.str.48, ptr noundef @.str.19, ptr noundef %177, ptr noundef @.str.20, ptr noundef %178, ptr noundef @.str.21, i32 noundef %179, ptr noundef @.str.49, i64 noundef %180, ptr noundef @.str.50, ptr noundef %181, ptr noundef @.str.26, i64 noundef %182, ptr noundef @.str.27, i64 noundef %183)
  %185 = icmp slt i32 %184, 0
  br i1 %185, label %186, label %205

186:                                              ; preds = %172
  br label %187

187:                                              ; preds = %186
  br label %188

188:                                              ; preds = %187
  br label %189

189:                                              ; preds = %188
  %190 = load i64, ptr @H5E_LINK_g, align 8, !tbaa !3
  %191 = load i64, ptr @H5E_CANTINSERT_g, align 8, !tbaa !3
  %192 = call i32 (ptr, ptr, i32, i64, i64, ptr, ...) @H5E_printf_stack(ptr noundef @.str, ptr noundef @__func__.H5Ldelete_async, i32 noundef 863, i64 noundef %190, i64 noundef %191, ptr noundef @.str.28)
  br label %193

193:                                              ; preds = %189
  br label %194

194:                                              ; preds = %193
  store i8 1, ptr %21, align 1, !tbaa !14
  %195 = load i8, ptr %21, align 1, !tbaa !14, !range !16, !noundef !17
  %196 = trunc i8 %195 to i1
  %197 = zext i1 %196 to i8
  store i8 %197, ptr %21, align 1, !tbaa !14
  br label %198

198:                                              ; preds = %194
  br label %199

199:                                              ; preds = %198
  br label %200

200:                                              ; preds = %199
  store i32 -1, ptr %18, align 4, !tbaa !12
  br label %207

201:                                              ; No predecessors!
  br label %202

202:                                              ; preds = %201
  br label %203

203:                                              ; preds = %202
  br label %204

204:                                              ; preds = %203
  br label %205

205:                                              ; preds = %204, %172
  br label %206

206:                                              ; preds = %205, %169
  br label %207

207:                                              ; preds = %206, %200, %164, %130, %98, %60
  %208 = load i8, ptr %20, align 1, !tbaa !14, !range !16, !noundef !17
  %209 = trunc i8 %208 to i1
  %210 = xor i1 %209, true
  %211 = xor i1 %210, true
  %212 = zext i1 %211 to i32
  %213 = sext i32 %212 to i64
  %214 = call i64 @llvm.expect.i64(i64 %213, i64 1)
  %215 = icmp ne i64 %214, 0
  br i1 %215, label %216, label %218

216:                                              ; preds = %207
  %217 = call i32 @H5CX_pop(i1 noundef zeroext true)
  store i8 0, ptr %20, align 1, !tbaa !14
  br label %218

218:                                              ; preds = %216, %207
  %219 = load i8, ptr %21, align 1, !tbaa !14, !range !16, !noundef !17
  %220 = trunc i8 %219 to i1
  %221 = xor i1 %220, true
  %222 = xor i1 %221, true
  %223 = zext i1 %222 to i32
  %224 = sext i32 %223 to i64
  %225 = call i64 @llvm.expect.i64(i64 %224, i64 0)
  %226 = icmp ne i64 %225, 0
  br i1 %226, label %227, label %229

227:                                              ; preds = %218
  %228 = call i32 @H5E_dump_api_stack()
  br label %229

229:                                              ; preds = %227, %218
  %230 = load i32, ptr %18, align 4, !tbaa !12
  call void @llvm.lifetime.end.p0(i64 1, ptr %21) #8
  call void @llvm.lifetime.end.p0(i64 1, ptr %20) #8
  call void @llvm.lifetime.end.p0(i64 480, ptr %19) #8
  call void @llvm.lifetime.end.p0(i64 4, ptr %18) #8
  call void @llvm.lifetime.end.p0(i64 8, ptr %17) #8
  call void @llvm.lifetime.end.p0(i64 8, ptr %16) #8
  call void @llvm.lifetime.end.p0(i64 8, ptr %15) #8
  ret i32 %230
}