; Function Attrs: nounwind uwtable
define range(i32 -1, 1) i32 @H5Ldelete_async(ptr noundef %0, ptr noundef %1, i32 noundef %2, i64 noundef %3, ptr noundef %4, i64 noundef %5, i64 noundef %6) local_unnamed_addr #0 {
  %8 = alloca ptr, align 8
  %9 = alloca ptr, align 8
  %10 = alloca %struct.H5CX_node_t, align 8
  call void @llvm.lifetime.start.p0(i64 8, ptr nonnull %8) #7
  store ptr null, ptr %8, align 8, !tbaa !20
  call void @llvm.lifetime.start.p0(i64 8, ptr nonnull %9) #7
  store ptr null, ptr %9, align 8, !tbaa !25
  call void @llvm.lifetime.start.p0(i64 480, ptr nonnull %10) #7
  call void @llvm.memset.p0.i64(ptr noundef nonnull align 8 dereferenceable(480) %10, i8 0, i64 480, i1 false)
  %11 = load i8, ptr @H5_libinit_g, align 1, !tbaa !7, !range !9, !noundef !10
  %12 = trunc nuw i8 %11 to i1
  %13 = load i8, ptr @H5_libterm_g, align 1, !range !9
  %14 = trunc nuw i8 %13 to i1
  %15 = select i1 %12, i1 true, i1 %14
  br i1 %15, label %23, label %16, !prof !11

16:                                               ; preds = %7
  %17 = tail call i32 @H5_init_library() #7
  %18 = icmp slt i32 %17, 0
  br i1 %18, label %19, label %._crit_edge, !prof !12

._crit_edge:                                      ; preds = %16
  %.pre = load i8, ptr @H5_libterm_g, align 1, !range !9
  br label %23

19:                                               ; preds = %16
  %20 = load i64, ptr @H5E_FUNC_g, align 8, !tbaa !3
  %21 = load i64, ptr @H5E_CANTINIT_g, align 8, !tbaa !3
  %22 = tail call i32 (ptr, ptr, i32, i64, i64, ptr, ...) @H5E_printf_stack(ptr noundef nonnull @.str, ptr noundef nonnull @__func__.H5Ldelete_async, i32 noundef 847, i64 noundef %20, i64 noundef %21, ptr noundef nonnull @.str.1) #7
  br label %.thread32

23:                                               ; preds = %._crit_edge, %7
  %24 = phi i8 [ %.pre, %._crit_edge ], [ %13, %7 ]
  %25 = load i8, ptr @H5L_init_g, align 1, !tbaa !7, !range !9, !noundef !10
  %26 = trunc nuw i8 %25 to i1
  %27 = trunc nuw i8 %24 to i1
  %28 = select i1 %26, i1 true, i1 %27
  br i1 %28, label %36, label %29, !prof !11

29:                                               ; preds = %23
  store i8 1, ptr @H5L_init_g, align 1, !tbaa !7
  %30 = tail call i32 @H5L__init_package() #7
  %31 = icmp slt i32 %30, 0
  br i1 %31, label %32, label %36, !prof !13

32:                                               ; preds = %29
  store i8 0, ptr @H5L_init_g, align 1, !tbaa !7
  %33 = load i64, ptr @H5E_FUNC_g, align 8, !tbaa !3
  %34 = load i64, ptr @H5E_CANTINIT_g, align 8, !tbaa !3
  %35 = tail call i32 (ptr, ptr, i32, i64, i64, ptr, ...) @H5E_printf_stack(ptr noundef nonnull @.str, ptr noundef nonnull @__func__.H5Ldelete_async, i32 noundef 847, i64 noundef %33, i64 noundef %34, ptr noundef nonnull @.str.2) #7
  br label %.thread32

36:                                               ; preds = %23, %29
  %37 = call i32 @H5CX_push(ptr noundef nonnull %10) #7
  %38 = icmp slt i32 %37, 0
  br i1 %38, label %39, label %43, !prof !12

39:                                               ; preds = %36
  %40 = load i64, ptr @H5E_FUNC_g, align 8, !tbaa !3
  %41 = load i64, ptr @H5E_CANTSET_g, align 8, !tbaa !3
  %42 = call i32 (ptr, ptr, i32, i64, i64, ptr, ...) @H5E_printf_stack(ptr noundef nonnull @.str, ptr noundef nonnull @__func__.H5Ldelete_async, i32 noundef 847, i64 noundef %40, i64 noundef %41, ptr noundef nonnull @.str.3) #7
  br label %.thread32

43:                                               ; preds = %36
  %44 = call i32 @H5E_clear_stack() #7
  %.not = icmp eq i64 %6, 0
  %spec.select = select i1 %.not, ptr null, ptr %9
  %45 = call fastcc i32 @H5L__delete_api_common(i64 noundef %3, ptr noundef %4, i64 noundef %5, ptr noundef %spec.select, ptr noundef nonnull %8)
  %46 = icmp slt i32 %45, 0
  br i1 %46, label %47, label %51, !prof !19

47:                                               ; preds = %43
  %48 = load i64, ptr @H5E_LINK_g, align 8, !tbaa !3
  %49 = load i64, ptr @H5E_CANTDELETE_g, align 8, !tbaa !3
  %50 = call i32 (ptr, ptr, i32, i64, i64, ptr, ...) @H5E_printf_stack(ptr noundef nonnull @.str, ptr noundef nonnull @__func__.H5Ldelete_async, i32 noundef 855, i64 noundef %48, i64 noundef %49, ptr noundef nonnull @.str.47) #7
  br label %.thread38

51:                                               ; preds = %43
  %52 = load ptr, ptr %9, align 8, !tbaa !25
  %.not23 = icmp eq ptr %52, null
  br i1 %.not23, label %64, label %53

53:                                               ; preds = %51
  %54 = load ptr, ptr %8, align 8, !tbaa !20
  %55 = call ptr @H5VL_obj_get_connector(ptr noundef %54) #7
  %56 = load ptr, ptr %9, align 8, !tbaa !25
  %57 = call i32 (i64, ptr, ptr, ptr, ptr, ...) @H5ES_insert(i64 noundef %6, ptr noundef %55, ptr noundef %56, ptr noundef nonnull @__func__.H5Ldelete_async, ptr noundef nonnull @.str.48, ptr noundef nonnull @.str.19, ptr noundef %0, ptr noundef nonnull @.str.20, ptr noundef %1, ptr noundef nonnull @.str.21, i32 noundef %2, ptr noundef nonnull @.str.49, i64 noundef %3, ptr noundef nonnull @.str.50, ptr noundef %4, ptr noundef nonnull @.str.26, i64 noundef %5, ptr noundef nonnull @.str.27, i64 noundef %6) #7
  %58 = icmp slt i32 %57, 0
  br i1 %58, label %59, label %64, !prof !19

59:                                               ; preds = %53
  %60 = load i64, ptr @H5E_LINK_g, align 8, !tbaa !3
  %61 = load i64, ptr @H5E_CANTINSERT_g, align 8, !tbaa !3
  %62 = call i32 (ptr, ptr, i32, i64, i64, ptr, ...) @H5E_printf_stack(ptr noundef nonnull @.str, ptr noundef nonnull @__func__.H5Ldelete_async, i32 noundef 863, i64 noundef %60, i64 noundef %61, ptr noundef nonnull @.str.28) #7
  br label %.thread38

.thread38:                                        ; preds = %59, %47
  %63 = call i32 @H5CX_pop(i1 noundef zeroext true) #7
  br label %.thread32

64:                                               ; preds = %51, %53
  %65 = call i32 @H5CX_pop(i1 noundef zeroext true) #7
  br label %67

.thread32:                                        ; preds = %39, %32, %19, %.thread38
  %66 = call i32 @H5E_dump_api_stack() #7
  br label %67

67:                                               ; preds = %64, %.thread32
  %.0212735 = phi i32 [ -1, %.thread32 ], [ 0, %64 ]
  call void @llvm.lifetime.end.p0(i64 480, ptr nonnull %10) #7
  call void @llvm.lifetime.end.p0(i64 8, ptr nonnull %9) #7
  call void @llvm.lifetime.end.p0(i64 8, ptr nonnull %8) #7
  ret i32 %.0212735
}